target datalayout = "e-m:e-p270:32:32-p271:32:32-p272:64:64-i64:64-i128:128-f80:128-n8:16:32:64-S128"
target triple = "x86_64-pc-linux-gnu"

%"class.std::__cxx11::basic_string" = type { %"struct.std::__cxx11::basic_string<char>::_Alloc_hider", i64, %union.anon }
%"struct.std::__cxx11::basic_string<char>::_Alloc_hider" = type { ptr }
%union.anon = type { i64, [8 x i8] }
%class.InteractionOfType = type { %"class.std::vector", %"struct.std::array", %"class.std::__cxx11::basic_string" }
%"class.std::vector" = type { %"struct.std::_Vector_base" }
%"struct.std::_Vector_base" = type { %"struct.std::_Vector_base<int, std::allocator<int>>::_Vector_impl" }
%"struct.std::_Vector_base<int, std::allocator<int>>::_Vector_impl" = type { %"struct.std::_Vector_base<int, std::allocator<int>>::_Vector_impl_data" }
%"struct.std::_Vector_base<int, std::allocator<int>>::_Vector_impl_data" = type { ptr, ptr, ptr }
%"struct.std::array" = type { [12 x float] }
%class.anon.23 = type { i8 }

@.str.11 = private unnamed_addr constant [130 x i8] c"generated/home/dtcxzyw/WorkSpace/Projects/compilers/llvm-opt-benchmark/bench/gromacs/gromacs/src/gromacs/gmxpreprocess/grompp.cpp\00", align 1
@.str.23 = private unnamed_addr constant [20 x i8] c"pos < MAXFORCEPARAM\00", align 1
@.str.24 = private unnamed_addr constant [60 x i8] c"Can't set parameter beyond the maximum number of parameters\00", align 1
@"__PRETTY_FUNCTION__._ZZN17InteractionOfType17setForceParameterEifENK3$_0clEv" = private unnamed_addr constant [92 x i8] c"auto InteractionOfType::setForceParameter(int, real)::(anonymous class)::operator()() const\00", align 1

; Function Attrs: mustprogress nounwind uwtable
define linkonce_odr noundef nonnull align 4 dereferenceable(4) ptr @_ZNSt14__array_traitsIfLm12EE6_S_refERA12_Kfm(ptr noundef nonnull align 4 dereferenceable(48) %0, i64 noundef %1) #3 comdat align 2 {
  %3 = alloca ptr, align 8
  %4 = alloca i64, align 8
  store ptr %0, ptr %3, align 8
  store i64 %1, ptr %4, align 8
  %5 = load ptr, ptr %3, align 8
  %6 = load i64, ptr %4, align 8
  %7 = getelementptr inbounds [12 x float], ptr %5, i64 0, i64 %6
  ret ptr %7
}

; Function Attrs: mustprogress nounwind uwtable
define linkonce_odr noundef nonnull align 4 dereferenceable(4) ptr @_ZNSt5arrayIfLm12EEixEm(ptr noundef nonnull align 4 dereferenceable(48) %0, i64 noundef %1) #3 comdat align 2 {
  %3 = alloca ptr, align 8
  %4 = alloca i64, align 8
  store ptr %0, ptr %3, align 8
  store i64 %1, ptr %4, align 8
  %5 = load ptr, ptr %3, align 8
  %6 = getelementptr inbounds %"struct.std::array", ptr %5, i32 0, i32 0
  %7 = load i64, ptr %4, align 8
  %8 = call noundef nonnull align 4 dereferenceable(4) ptr @_ZNSt14__array_traitsIfLm12EE6_S_refERA12_Kfm(ptr noundef nonnull align 4 dereferenceable(48) %6, i64 noundef %7) #4
  ret ptr %8
}

; Function Attrs: mustprogress uwtable
define internal void @"_ZZN17InteractionOfType17setForceParameterEifENK3$_0clEv"(ptr noundef nonnull align 1 dereferenceable(1) %0) #2 align 2 {
  %2 = alloca ptr, align 8
  store ptr %0, ptr %2, align 8
  call void @_ZN3gmx8internal13assertHandlerEPKcS2_S2_S2_i(ptr noundef @.str.23, ptr noundef @.str.24, ptr noundef @"__PRETTY_FUNCTION__._ZZN17InteractionOfType17setForceParameterEifENK3$_0clEv", ptr noundef @.str.11, i32 noundef 234) #17
  unreachable
}

; Function Attrs: mustprogress uwtable
define void @_ZN17InteractionOfType17setForceParameterEif(ptr noundef nonnull align 8 dereferenceable(104) %0, i32 noundef %1, float noundef %2) #2 align 2 {
  %4 = alloca ptr, align 8
  %5 = alloca i32, align 4
  %6 = alloca float, align 4
  %7 = alloca %class.anon.23, align 1
  store ptr %0, ptr %4, align 8
  store i32 %1, ptr %5, align 4
  store float %2, ptr %6, align 4
  %8 = load ptr, ptr %4, align 8
  %9 = load i32, ptr %5, align 4
  %10 = icmp slt i32 %9, 12
  br i1 %10, label %11, label %12

11:                                               ; preds = %3
  br label %13

12:                                               ; preds = %3
  call void @"_ZZN17InteractionOfType17setForceParameterEifENK3$_0clEv"(ptr noundef nonnull align 1 dereferenceable(1) %7)
  br label %13

13:                                               ; preds = %12, %11
  %14 = load float, ptr %6, align 4
  %15 = getelementptr inbounds %class.InteractionOfType, ptr %8, i32 0, i32 1
  %16 = load i32, ptr %5, align 4
  %17 = sext i32 %16 to i64
  %18 = call noundef nonnull align 4 dereferenceable(4) ptr @_ZNSt5arrayIfLm12EEixEm(ptr noundef nonnull align 4 dereferenceable(48) %15, i64 noundef %17) #4
  store float %14, ptr %18, align 4
  ret void
}