; Function Attrs: mustprogress uwtable
define void @_ZN17InteractionOfType17setForceParameterEif(ptr nocapture noundef nonnull writeonly align 8 dereferenceable(104) %0, i32 noundef %1, float noundef %2) local_unnamed_addr #1 align 2 {
  %4 = icmp slt i32 %1, 12
  br i1 %4, label %6, label %5

5:                                                ; preds = %3
  tail call void @_ZN3gmx8internal13assertHandlerEPKcS2_S2_S2_i(ptr noundef nonnull @.str.23, ptr noundef nonnull @.str.24, ptr noundef nonnull @"__PRETTY_FUNCTION__._ZZN17InteractionOfType17setForceParameterEifENK3$_0clEv", ptr noundef nonnull @.str.11, i32 noundef 234) #22
  unreachable

6:                                                ; preds = %3
  %7 = getelementptr inbounds i8, ptr %0, i64 24
  %8 = sext i32 %1 to i64
  %9 = getelementptr inbounds [12 x float], ptr %7, i64 0, i64 %8
  store float %2, ptr %9, align 4
  ret void
}